; ModuleID = 'source-C-CXX/10/992.cpp'
source_filename = "source-C-CXX/10/992.cpp"
target datalayout = "e-m:e-p270:32:32-p271:32:32-p272:64:64-i64:64-f80:128-n8:16:32:64-S128"
target triple = "x86_64-pc-linux-gnu"

%"class.std::ios_base::Init" = type { i8 }
%"class.std::basic_istream" = type { i32 (...)**, i64, %"class.std::basic_ios" }
%"class.std::basic_ios" = type { %"class.std::ios_base", %"class.std::basic_ostream"*, i8, i8, %"class.std::basic_streambuf"*, %"class.std::ctype"*, %"class.std::num_put"*, %"class.std::num_get"* }
%"class.std::ios_base" = type { i32 (...)**, i64, i64, i32, i32, i32, %"struct.std::ios_base::_Callback_list"*, %"struct.std::ios_base::_Words", [8 x %"struct.std::ios_base::_Words"], i32, %"struct.std::ios_base::_Words"*, %"class.std::locale" }
%"struct.std::ios_base::_Callback_list" = type { %"struct.std::ios_base::_Callback_list"*, void (i32, %"class.std::ios_base"*, i32)*, i32, i32 }
%"struct.std::ios_base::_Words" = type { i8*, i64 }
%"class.std::locale" = type { %"class.std::locale::_Impl"* }
%"class.std::locale::_Impl" = type { i32, %"class.std::locale::facet"**, i64, %"class.std::locale::facet"**, i8** }
%"class.std::locale::facet" = type <{ i32 (...)**, i32, [4 x i8] }>
%"class.std::basic_ostream" = type { i32 (...)**, %"class.std::basic_ios" }
%"class.std::basic_streambuf" = type { i32 (...)**, i8*, i8*, i8*, i8*, i8*, i8*, %"class.std::locale" }
%"class.std::ctype" = type <{ %"class.std::locale::facet.base", [4 x i8], %struct.__locale_struct*, i8, [7 x i8], i32*, i32*, i16*, i8, [256 x i8], [256 x i8], i8, [6 x i8] }>
%"class.std::locale::facet.base" = type <{ i32 (...)**, i32 }>
%struct.__locale_struct = type { [13 x %struct.__locale_data*], i16*, i32*, i32*, [13 x i8*] }
%struct.__locale_data = type opaque
%"class.std::num_put" = type { %"class.std::locale::facet.base", [4 x i8] }
%"class.std::num_get" = type { %"class.std::locale::facet.base", [4 x i8] }

@_ZStL8__ioinit = internal global %"class.std::ios_base::Init" zeroinitializer, align 1
@__dso_handle = external hidden global i8
@__const.main.a = private unnamed_addr constant [2 x [12 x i32]] [[12 x i32] [i32 31, i32 28, i32 31, i32 30, i32 31, i32 30, i32 31, i32 31, i32 30, i32 31, i32 30, i32 31], [12 x i32] [i32 31, i32 29, i32 31, i32 30, i32 31, i32 30, i32 31, i32 31, i32 30, i32 31, i32 30, i32 31]], align 16
@_ZSt3cin = external global %"class.std::basic_istream", align 8
@_ZSt4cout = external global %"class.std::basic_ostream", align 8
@llvm.global_ctors = appending global [1 x { i32, void ()*, i8* }] [{ i32, void ()*, i8* } { i32 65535, void ()* @_GLOBAL__sub_I_992.cpp, i8* null }]

declare void @_ZNSt8ios_base4InitC1Ev(%"class.std::ios_base::Init"* nonnull align 1 dereferenceable(1)) unnamed_addr #0

; Function Attrs: nounwind
declare void @_ZNSt8ios_base4InitD1Ev(%"class.std::ios_base::Init"* nonnull align 1 dereferenceable(1)) unnamed_addr #1

; Function Attrs: nofree nounwind
declare i32 @__cxa_atexit(void (i8*)*, i8*, i8*) local_unnamed_addr #2

; Function Attrs: mustprogress norecurse sspstrong uwtable
define dso_local i32 @main() local_unnamed_addr #3 {
  %1 = alloca i32, align 4
  %2 = alloca i32, align 4
  %3 = alloca i32, align 4
  %4 = bitcast i32* %1 to i8*
  call void @llvm.lifetime.start.p0i8(i64 4, i8* nonnull %4) #8
  %5 = bitcast i32* %2 to i8*
  call void @llvm.lifetime.start.p0i8(i64 4, i8* nonnull %5) #8
  %6 = bitcast i32* %3 to i8*
  call void @llvm.lifetime.start.p0i8(i64 4, i8* nonnull %6) #8
  %7 = call nonnull align 8 dereferenceable(16) %"class.std::basic_istream"* @_ZNSirsERi(%"class.std::basic_istream"* nonnull align 8 dereferenceable(16) @_ZSt3cin, i32* nonnull align 4 dereferenceable(4) %1)
  %8 = call nonnull align 8 dereferenceable(16) %"class.std::basic_istream"* @_ZNSirsERi(%"class.std::basic_istream"* nonnull align 8 dereferenceable(16) %7, i32* nonnull align 4 dereferenceable(4) %2)
  %9 = call nonnull align 8 dereferenceable(16) %"class.std::basic_istream"* @_ZNSirsERi(%"class.std::basic_istream"* nonnull align 8 dereferenceable(16) %8, i32* nonnull align 4 dereferenceable(4) %3)
  %10 = load i32, i32* %1, align 4, !tbaa !5
  %11 = srem i32 %10, 400
  %12 = icmp eq i32 %11, 0
  br i1 %12, label %20, label %13

13:                                               ; preds = %0
  %14 = srem i32 %10, 100
  %15 = icmp eq i32 %14, 0
  br i1 %15, label %20, label %16

16:                                               ; preds = %13
  %17 = and i32 %10, 3
  %18 = icmp eq i32 %17, 0
  %19 = zext i1 %18 to i64
  br label %20

20:                                               ; preds = %13, %16, %0
  %21 = phi i64 [ 1, %0 ], [ 0, %13 ], [ %19, %16 ]
  %22 = load i32, i32* %2, align 4, !tbaa !5
  %23 = icmp sgt i32 %22, 1
  br i1 %23, label %24, label %112

24:                                               ; preds = %20
  %25 = add nsw i32 %22, -1
  %26 = zext i32 %25 to i64
  %27 = icmp ult i32 %25, 8
  br i1 %27, label %109, label %28

28:                                               ; preds = %24
  %29 = and i64 %26, 4294967288
  %30 = add nsw i64 %29, -8
  %31 = lshr exact i64 %30, 3
  %32 = add nuw nsw i64 %31, 1
  %33 = and i64 %32, 3
  %34 = icmp ult i64 %30, 24
  br i1 %34, label %80, label %35

35:                                               ; preds = %28
  %36 = and i64 %32, 4611686018427387900
  br label %37

37:                                               ; preds = %37, %35
  %38 = phi i64 [ 0, %35 ], [ %77, %37 ]
  %39 = phi <4 x i32> [ zeroinitializer, %35 ], [ %75, %37 ]
  %40 = phi <4 x i32> [ zeroinitializer, %35 ], [ %76, %37 ]
  %41 = phi i64 [ %36, %35 ], [ %78, %37 ]
  %42 = getelementptr inbounds [2 x [12 x i32]], [2 x [12 x i32]]* @__const.main.a, i64 0, i64 %21, i64 %38
  %43 = bitcast i32* %42 to <4 x i32>*
  %44 = load <4 x i32>, <4 x i32>* %43, align 16, !tbaa !5
  %45 = getelementptr inbounds i32, i32* %42, i64 4
  %46 = bitcast i32* %45 to <4 x i32>*
  %47 = load <4 x i32>, <4 x i32>* %46, align 16, !tbaa !5
  %48 = add <4 x i32> %44, %39
  %49 = add <4 x i32> %47, %40
  %50 = or i64 %38, 8
  %51 = getelementptr inbounds [2 x [12 x i32]], [2 x [12 x i32]]* @__const.main.a, i64 0, i64 %21, i64 %50
  %52 = bitcast i32* %51 to <4 x i32>*
  %53 = load <4 x i32>, <4 x i32>* %52, align 16, !tbaa !5
  %54 = getelementptr inbounds i32, i32* %51, i64 4
  %55 = bitcast i32* %54 to <4 x i32>*
  %56 = load <4 x i32>, <4 x i32>* %55, align 16, !tbaa !5
  %57 = add <4 x i32> %53, %48
  %58 = add <4 x i32> %56, %49
  %59 = or i64 %38, 16
  %60 = getelementptr inbounds [2 x [12 x i32]], [2 x [12 x i32]]* @__const.main.a, i64 0, i64 %21, i64 %59
  %61 = bitcast i32* %60 to <4 x i32>*
  %62 = load <4 x i32>, <4 x i32>* %61, align 16, !tbaa !5
  %63 = getelementptr inbounds i32, i32* %60, i64 4
  %64 = bitcast i32* %63 to <4 x i32>*
  %65 = load <4 x i32>, <4 x i32>* %64, align 16, !tbaa !5
  %66 = add <4 x i32> %62, %57
  %67 = add <4 x i32> %65, %58
  %68 = or i64 %38, 24
  %69 = getelementptr inbounds [2 x [12 x i32]], [2 x [12 x i32]]* @__const.main.a, i64 0, i64 %21, i64 %68
  %70 = bitcast i32* %69 to <4 x i32>*
  %71 = load <4 x i32>, <4 x i32>* %70, align 16, !tbaa !5
  %72 = getelementptr inbounds i32, i32* %69, i64 4
  %73 = bitcast i32* %72 to <4 x i32>*
  %74 = load <4 x i32>, <4 x i32>* %73, align 16, !tbaa !5
  %75 = add <4 x i32> %71, %66
  %76 = add <4 x i32> %74, %67
  %77 = add nuw i64 %38, 32
  %78 = add i64 %41, -4
  %79 = icmp eq i64 %78, 0
  br i1 %79, label %80, label %37, !llvm.loop !9

80:                                               ; preds = %37, %28
  %81 = phi <4 x i32> [ undef, %28 ], [ %75, %37 ]
  %82 = phi <4 x i32> [ undef, %28 ], [ %76, %37 ]
  %83 = phi i64 [ 0, %28 ], [ %77, %37 ]
  %84 = phi <4 x i32> [ zeroinitializer, %28 ], [ %75, %37 ]
  %85 = phi <4 x i32> [ zeroinitializer, %28 ], [ %76, %37 ]
  %86 = icmp eq i64 %33, 0
  br i1 %86, label %103, label %87

87:                                               ; preds = %80, %87
  %88 = phi i64 [ %100, %87 ], [ %83, %80 ]
  %89 = phi <4 x i32> [ %98, %87 ], [ %84, %80 ]
  %90 = phi <4 x i32> [ %99, %87 ], [ %85, %80 ]
  %91 = phi i64 [ %101, %87 ], [ %33, %80 ]
  %92 = getelementptr inbounds [2 x [12 x i32]], [2 x [12 x i32]]* @__const.main.a, i64 0, i64 %21, i64 %88
  %93 = bitcast i32* %92 to <4 x i32>*
  %94 = load <4 x i32>, <4 x i32>* %93, align 16, !tbaa !5
  %95 = getelementptr inbounds i32, i32* %92, i64 4
  %96 = bitcast i32* %95 to <4 x i32>*
  %97 = load <4 x i32>, <4 x i32>* %96, align 16, !tbaa !5
  %98 = add <4 x i32> %94, %89
  %99 = add <4 x i32> %97, %90
  %100 = add nuw i64 %88, 8
  %101 = add i64 %91, -1
  %102 = icmp eq i64 %101, 0
  br i1 %102, label %103, label %87, !llvm.loop !12

103:                                              ; preds = %87, %80
  %104 = phi <4 x i32> [ %81, %80 ], [ %98, %87 ]
  %105 = phi <4 x i32> [ %82, %80 ], [ %99, %87 ]
  %106 = add <4 x i32> %105, %104
  %107 = call i32 @llvm.vector.reduce.add.v4i32(<4 x i32> %106)
  %108 = icmp eq i64 %29, %26
  br i1 %108, label %112, label %109

109:                                              ; preds = %24, %103
  %110 = phi i64 [ 0, %24 ], [ %29, %103 ]
  %111 = phi i32 [ 0, %24 ], [ %107, %103 ]
  br label %146

112:                                              ; preds = %146, %103, %20
  %113 = phi i32 [ 0, %20 ], [ %107, %103 ], [ %151, %146 ]
  %114 = load i32, i32* %3, align 4, !tbaa !5
  %115 = add nsw i32 %114, %113
  %116 = call nonnull align 8 dereferenceable(8) %"class.std::basic_ostream"* @_ZNSolsEi(%"class.std::basic_ostream"* nonnull align 8 dereferenceable(8) @_ZSt4cout, i32 %115)
  %117 = bitcast %"class.std::basic_ostream"* %116 to i8**
  %118 = load i8*, i8** %117, align 8, !tbaa !14
  %119 = getelementptr i8, i8* %118, i64 -24
  %120 = bitcast i8* %119 to i64*
  %121 = load i64, i64* %120, align 8
  %122 = bitcast %"class.std::basic_ostream"* %116 to i8*
  %123 = add nsw i64 %121, 240
  %124 = getelementptr inbounds i8, i8* %122, i64 %123
  %125 = bitcast i8* %124 to %"class.std::ctype"**
  %126 = load %"class.std::ctype"*, %"class.std::ctype"** %125, align 8, !tbaa !16
  %127 = icmp eq %"class.std::ctype"* %126, null
  br i1 %127, label %128, label %129

128:                                              ; preds = %112
  call void @_ZSt16__throw_bad_castv() #9
  unreachable

129:                                              ; preds = %112
  %130 = getelementptr inbounds %"class.std::ctype", %"class.std::ctype"* %126, i64 0, i32 8
  %131 = load i8, i8* %130, align 8, !tbaa !20
  %132 = icmp eq i8 %131, 0
  br i1 %132, label %136, label %133

133:                                              ; preds = %129
  %134 = getelementptr inbounds %"class.std::ctype", %"class.std::ctype"* %126, i64 0, i32 9, i64 10
  %135 = load i8, i8* %134, align 1, !tbaa !22
  br label %142

136:                                              ; preds = %129
  call void @_ZNKSt5ctypeIcE13_M_widen_initEv(%"class.std::ctype"* nonnull align 8 dereferenceable(570) %126)
  %137 = bitcast %"class.std::ctype"* %126 to i8 (%"class.std::ctype"*, i8)***
  %138 = load i8 (%"class.std::ctype"*, i8)**, i8 (%"class.std::ctype"*, i8)*** %137, align 8, !tbaa !14
  %139 = getelementptr inbounds i8 (%"class.std::ctype"*, i8)*, i8 (%"class.std::ctype"*, i8)** %138, i64 6
  %140 = load i8 (%"class.std::ctype"*, i8)*, i8 (%"class.std::ctype"*, i8)** %139, align 8
  %141 = call signext i8 %140(%"class.std::ctype"* nonnull align 8 dereferenceable(570) %126, i8 signext 10)
  br label %142

142:                                              ; preds = %133, %136
  %143 = phi i8 [ %135, %133 ], [ %141, %136 ]
  %144 = call nonnull align 8 dereferenceable(8) %"class.std::basic_ostream"* @_ZNSo3putEc(%"class.std::basic_ostream"* nonnull align 8 dereferenceable(8) %116, i8 signext %143)
  %145 = call nonnull align 8 dereferenceable(8) %"class.std::basic_ostream"* @_ZNSo5flushEv(%"class.std::basic_ostream"* nonnull align 8 dereferenceable(8) %144)
  call void @llvm.lifetime.end.p0i8(i64 4, i8* nonnull %6) #8
  call void @llvm.lifetime.end.p0i8(i64 4, i8* nonnull %5) #8
  call void @llvm.lifetime.end.p0i8(i64 4, i8* nonnull %4) #8
  ret i32 0

146:                                              ; preds = %109, %146
  %147 = phi i64 [ %152, %146 ], [ %110, %109 ]
  %148 = phi i32 [ %151, %146 ], [ %111, %109 ]
  %149 = getelementptr inbounds [2 x [12 x i32]], [2 x [12 x i32]]* @__const.main.a, i64 0, i64 %21, i64 %147
  %150 = load i32, i32* %149, align 4, !tbaa !5
  %151 = add nsw i32 %150, %148
  %152 = add nuw nsw i64 %147, 1
  %153 = icmp eq i64 %152, %26
  br i1 %153, label %112, label %146, !llvm.loop !23
}

; Function Attrs: argmemonly mustprogress nofree nosync nounwind willreturn
declare void @llvm.lifetime.start.p0i8(i64 immarg, i8* nocapture) #4

declare nonnull align 8 dereferenceable(16) %"class.std::basic_istream"* @_ZNSirsERi(%"class.std::basic_istream"* nonnull align 8 dereferenceable(16), i32* nonnull align 4 dereferenceable(4)) local_unnamed_addr #0

; Function Attrs: argmemonly mustprogress nofree nosync nounwind willreturn
declare void @llvm.lifetime.end.p0i8(i64 immarg, i8* nocapture) #4

declare nonnull align 8 dereferenceable(8) %"class.std::basic_ostream"* @_ZNSolsEi(%"class.std::basic_ostream"* nonnull align 8 dereferenceable(8), i32) local_unnamed_addr #0

declare nonnull align 8 dereferenceable(8) %"class.std::basic_ostream"* @_ZNSo3putEc(%"class.std::basic_ostream"* nonnull align 8 dereferenceable(8), i8 signext) local_unnamed_addr #0

declare nonnull align 8 dereferenceable(8) %"class.std::basic_ostream"* @_ZNSo5flushEv(%"class.std::basic_ostream"* nonnull align 8 dereferenceable(8)) local_unnamed_addr #0

; Function Attrs: noreturn
declare void @_ZSt16__throw_bad_castv() local_unnamed_addr #5

declare void @_ZNKSt5ctypeIcE13_M_widen_initEv(%"class.std::ctype"* nonnull align 8 dereferenceable(570)) local_unnamed_addr #0

; Function Attrs: sspstrong uwtable
define internal void @_GLOBAL__sub_I_992.cpp() #6 section ".text.startup" {
  tail call void @_ZNSt8ios_base4InitC1Ev(%"class.std::ios_base::Init"* nonnull align 1 dereferenceable(1) @_ZStL8__ioinit)
  %1 = tail call i32 @__cxa_atexit(void (i8*)* bitcast (void (%"class.std::ios_base::Init"*)* @_ZNSt8ios_base4InitD1Ev to void (i8*)*), i8* getelementptr inbounds (%"class.std::ios_base::Init", %"class.std::ios_base::Init"* @_ZStL8__ioinit, i64 0, i32 0), i8* nonnull @__dso_handle) #8
  ret void
}

; Function Attrs: nofree nosync nounwind readnone willreturn
declare i32 @llvm.vector.reduce.add.v4i32(<4 x i32>) #7


!llvm.module.flags = !{!0, !1, !2, !3}
!llvm.ident = !{!4}

!0 = !{i32 1, !"wchar_size", i32 4}
!1 = !{i32 7, !"PIC Level", i32 2}
!2 = !{i32 7, !"PIE Level", i32 2}
!3 = !{i32 7, !"uwtable", i32 1}
!4 = !{!"clang version 13.0.0"}
!5 = !{!6, !6, i64 0}
!6 = !{!"int", !7, i64 0}
!7 = !{!"omnipotent char", !8, i64 0}
!8 = !{!"Simple C++ TBAA"}
!9 = distinct !{!9, !10, !11}
!10 = !{!"llvm.loop.mustprogress"}
!11 = !{!"llvm.loop.isvectorized", i32 1}
!12 = distinct !{!12, !13}
!13 = !{!"llvm.loop.unroll.disable"}
!14 = !{!15, !15, i64 0}
!15 = !{!"vtable pointer", !8, i64 0}
!16 = !{!17, !18, i64 240}
!17 = !{!"_ZTSSt9basic_iosIcSt11char_traitsIcEE", !18, i64 216, !7, i64 224, !19, i64 225, !18, i64 232, !18, i64 240, !18, i64 248, !18, i64 256}
!18 = !{!"any pointer", !7, i64 0}
!19 = !{!"bool", !7, i64 0}
!20 = !{!21, !7, i64 56}
!21 = !{!"_ZTSSt5ctypeIcE", !18, i64 16, !19, i64 24, !18, i64 32, !18, i64 40, !18, i64 48, !7, i64 56, !7, i64 57, !7, i64 313, !7, i64 569}
!22 = !{!7, !7, i64 0}
!23 = distinct !{!23, !10, !24, !11}
!24 = !{!"llvm.loop.unroll.runtime.disable"}
